target datalayout = "e-m:e-p270:32:32-p271:32:32-p272:64:64-i64:64-i128:128-f80:128-n8:16:32:64-S128"
target triple = "x86_64-pc-linux-gnu"

%struct._value_string = type { i32, ptr }
%struct.raknet_session_state = type { i8, ptr }
%struct._packet_info = type { ptr, ptr, i32, i32, %struct.nstime_t, %struct.nstime_t, %struct.nstime_t, i8, ptr, ptr, ptr, ptr, %struct._address, %struct._address, %struct._address, %struct._address, %struct._address, %struct._address, i32, ptr, i8, [3 x i8], %struct.anon, i32, i32, i32, i32, ptr, i8, ptr, ptr, i16, i16, i32, i32, i16, i32, i32, ptr, ptr, ptr, i8, i8, i16, i16, i16, i32, i16, i16, ptr, ptr, ptr, ptr, ptr, i32, i32 }
%struct.nstime_t = type { i64, i32 }
%struct._address = type { i32, i32, ptr, ptr }
%struct.anon = type { i8, [3 x i8] }

@hf_raknet_offline_message_id = internal global i32 0, align 4
@raknet_offline_message_names = internal global [15 x %struct._value_string] zeroinitializer, align 16
@hf_raknet_client_guid = internal global i32 0, align 4
@hf_raknet_offline_message_data_id = internal global i32 0, align 4
@hf_raknet_mtu_size = internal global i32 0, align 4
@hf_raknet_cookie = internal global i32 0, align 4
@hf_raknet_client_wrote_challenge = internal global i32 0, align 4
@hf_raknet_client_challenge = internal global i32 0, align 4
@hf_raknet_server_address = internal global i32 0, align 4
@ett_raknet = internal global i32 0, align 4
@proto_raknet = internal global i32 0, align 4
@.str.205 = private unnamed_addr constant [29 x i8] c"Unknown offline message: %#x\00", align 1
@.str.206 = private unnamed_addr constant [25 x i8] c", Offline message ID %#x\00", align 1

; Function Attrs: null_pointer_is_valid sspstrong uwtable
define internal ptr @raknet_get_session_state(ptr noundef %0) #0 {
  %2 = alloca ptr, align 8
  %3 = alloca ptr, align 8
  %4 = alloca ptr, align 8
  store ptr %0, ptr %2, align 8
  call void @llvm.lifetime.start.p0(i64 8, ptr %3) #6
  call void @llvm.lifetime.start.p0(i64 8, ptr %4) #6
  %5 = load ptr, ptr %2, align 8
  %6 = call ptr @find_or_create_conversation(ptr noundef %5)
  store ptr %6, ptr %3, align 8
  %7 = load ptr, ptr %3, align 8
  %8 = load i32, ptr @proto_raknet, align 4
  %9 = call ptr @conversation_get_proto_data(ptr noundef %7, i32 noundef %8)
  store ptr %9, ptr %4, align 8
  %10 = load ptr, ptr %4, align 8
  %11 = icmp eq ptr %10, null
  br i1 %11, label %12, label %22

12:                                               ; preds = %1
  %13 = call ptr @wmem_file_scope()
  %14 = call noalias ptr @wmem_alloc(ptr noundef %13, i64 noundef 16) #7
  store ptr %14, ptr %4, align 8
  %15 = load ptr, ptr %4, align 8
  %16 = getelementptr inbounds nuw %struct.raknet_session_state, ptr %15, i32 0, i32 0
  store i8 0, ptr %16, align 8
  %17 = load ptr, ptr %4, align 8
  %18 = getelementptr inbounds nuw %struct.raknet_session_state, ptr %17, i32 0, i32 1
  store ptr null, ptr %18, align 8
  %19 = load ptr, ptr %3, align 8
  %20 = load i32, ptr @proto_raknet, align 4
  %21 = load ptr, ptr %4, align 8
  call void @conversation_add_proto_data(ptr noundef %19, i32 noundef %20, ptr noundef %21)
  br label %22

22:                                               ; preds = %12, %1
  %23 = load ptr, ptr %4, align 8
  call void @llvm.lifetime.end.p0(i64 8, ptr %4) #6
  call void @llvm.lifetime.end.p0(i64 8, ptr %3) #6
  ret ptr %23
}

; Function Attrs: null_pointer_is_valid sspstrong uwtable
define internal ptr @init_raknet_offline_message(ptr noundef %0, ptr noundef %1, ptr noundef %2, ptr noundef %3) #0 {
  %5 = alloca ptr, align 8
  %6 = alloca ptr, align 8
  %7 = alloca ptr, align 8
  %8 = alloca ptr, align 8
  %9 = alloca ptr, align 8
  %10 = alloca ptr, align 8
  %11 = alloca i8, align 1
  store ptr %0, ptr %5, align 8
  store ptr %1, ptr %6, align 8
  store ptr %2, ptr %7, align 8
  store ptr %3, ptr %8, align 8
  call void @llvm.lifetime.start.p0(i64 8, ptr %9) #6
  call void @llvm.lifetime.start.p0(i64 8, ptr %10) #6
  call void @llvm.lifetime.start.p0(i64 1, ptr %11) #6
  %12 = load ptr, ptr %8, align 8
  store i32 0, ptr %12, align 4
  %13 = load ptr, ptr %7, align 8
  %14 = load i32, ptr @proto_raknet, align 4
  %15 = load ptr, ptr %5, align 8
  %16 = call ptr @proto_tree_add_item(ptr noundef %13, i32 noundef %14, ptr noundef %15, i32 noundef 0, i32 noundef -1, i32 noundef 0)
  store ptr %16, ptr %10, align 8
  %17 = load ptr, ptr %10, align 8
  %18 = load i32, ptr @ett_raknet, align 4
  %19 = call ptr @proto_item_add_subtree(ptr noundef %17, i32 noundef %18)
  store ptr %19, ptr %9, align 8
  %20 = load ptr, ptr %5, align 8
  %21 = load ptr, ptr %8, align 8
  %22 = load i32, ptr %21, align 4
  %23 = call zeroext i8 @tvb_get_uint8(ptr noundef %20, i32 noundef %22)
  store i8 %23, ptr %11, align 1
  %24 = load ptr, ptr %9, align 8
  %25 = load i32, ptr @hf_raknet_offline_message_id, align 4
  %26 = load ptr, ptr %5, align 8
  %27 = load ptr, ptr %8, align 8
  %28 = load i32, ptr %27, align 4
  %29 = call ptr @proto_tree_add_item(ptr noundef %24, i32 noundef %25, ptr noundef %26, i32 noundef %28, i32 noundef 1, i32 noundef 0)
  %30 = load ptr, ptr %8, align 8
  %31 = load i32, ptr %30, align 4
  %32 = add i32 %31, 1
  store i32 %32, ptr %30, align 4
  %33 = load ptr, ptr %6, align 8
  %34 = getelementptr inbounds nuw %struct._packet_info, ptr %33, i32 0, i32 1
  %35 = load ptr, ptr %34, align 8
  %36 = load i8, ptr %11, align 1
  %37 = zext i8 %36 to i32
  %38 = call ptr @val_to_str(i32 noundef %37, ptr noundef @raknet_offline_message_names, ptr noundef @.str.205)
  call void @col_add_str(ptr noundef %35, i32 noundef 25, ptr noundef %38)
  %39 = load ptr, ptr %10, align 8
  %40 = load i8, ptr %11, align 1
  %41 = zext i8 %40 to i32
  call void (ptr, ptr, ...) @proto_item_append_text(ptr noundef %39, ptr noundef @.str.206, i32 noundef %41)
  %42 = load ptr, ptr %9, align 8
  call void @llvm.lifetime.end.p0(i64 1, ptr %11) #6
  call void @llvm.lifetime.end.p0(i64 8, ptr %10) #6
  call void @llvm.lifetime.end.p0(i64 8, ptr %9) #6
  ret ptr %42
}

; Function Attrs: null_pointer_is_valid sspstrong uwtable
define internal i32 @raknet_dissect_open_connection_request_2(ptr noundef %0, ptr noundef %1, ptr noundef %2, ptr noundef %3) #0 {
  %5 = alloca ptr, align 8
  %6 = alloca ptr, align 8
  %7 = alloca ptr, align 8
  %8 = alloca ptr, align 8
  %9 = alloca ptr, align 8
  %10 = alloca i32, align 4
  %11 = alloca ptr, align 8
  %12 = alloca i8, align 1
  store ptr %0, ptr %5, align 8
  store ptr %1, ptr %6, align 8
  store ptr %2, ptr %7, align 8
  store ptr %3, ptr %8, align 8
  call void @llvm.lifetime.start.p0(i64 8, ptr %9) #6
  call void @llvm.lifetime.start.p0(i64 4, ptr %10) #6
  call void @llvm.lifetime.start.p0(i64 8, ptr %11) #6
  %13 = load ptr, ptr %5, align 8
  %14 = load ptr, ptr %6, align 8
  %15 = load ptr, ptr %7, align 8
  %16 = call ptr @init_raknet_offline_message(ptr noundef %13, ptr noundef %14, ptr noundef %15, ptr noundef %10)
  store ptr %16, ptr %9, align 8
  %17 = load ptr, ptr %9, align 8
  %18 = load i32, ptr @hf_raknet_offline_message_data_id, align 4
  %19 = load ptr, ptr %5, align 8
  %20 = load i32, ptr %10, align 4
  %21 = call ptr @proto_tree_add_item(ptr noundef %17, i32 noundef %18, ptr noundef %19, i32 noundef %20, i32 noundef 16, i32 noundef 0)
  %22 = load i32, ptr %10, align 4
  %23 = add i32 %22, 16
  store i32 %23, ptr %10, align 4
  %24 = load ptr, ptr %6, align 8
  %25 = call ptr @raknet_get_session_state(ptr noundef %24)
  store ptr %25, ptr %11, align 8
  %26 = load ptr, ptr %11, align 8
  %27 = getelementptr inbounds nuw %struct.raknet_session_state, ptr %26, i32 0, i32 0
  %28 = load i8, ptr %27, align 8, !range !11, !noundef !12
  %29 = trunc i8 %28 to i1
  br i1 %29, label %30, label %64

30:                                               ; preds = %4
  call void @llvm.lifetime.start.p0(i64 1, ptr %12) #6
  %31 = load ptr, ptr %9, align 8
  %32 = load i32, ptr @hf_raknet_cookie, align 4
  %33 = load ptr, ptr %5, align 8
  %34 = load i32, ptr %10, align 4
  %35 = call ptr @proto_tree_add_item(ptr noundef %31, i32 noundef %32, ptr noundef %33, i32 noundef %34, i32 noundef 4, i32 noundef 0)
  %36 = load i32, ptr %10, align 4
  %37 = add i32 %36, 4
  store i32 %37, ptr %10, align 4
  %38 = load ptr, ptr %5, align 8
  %39 = load i32, ptr %10, align 4
  %40 = call zeroext i8 @tvb_get_uint8(ptr noundef %38, i32 noundef %39)
  %41 = zext i8 %40 to i32
  %42 = icmp ne i32 %41, 0
  %43 = select i1 %42, i32 1, i32 0
  %44 = icmp ne i32 %43, 0
  %45 = zext i1 %44 to i8
  store i8 %45, ptr %12, align 1
  %46 = load ptr, ptr %9, align 8
  %47 = load i32, ptr @hf_raknet_client_wrote_challenge, align 4
  %48 = load ptr, ptr %5, align 8
  %49 = load i32, ptr %10, align 4
  %50 = call ptr @proto_tree_add_item(ptr noundef %46, i32 noundef %47, ptr noundef %48, i32 noundef %49, i32 noundef 1, i32 noundef 0)
  %51 = load i32, ptr %10, align 4
  %52 = add i32 %51, 1
  store i32 %52, ptr %10, align 4
  %53 = load i8, ptr %12, align 1, !range !11, !noundef !12
  %54 = trunc i8 %53 to i1
  br i1 %54, label %55, label %63

55:                                               ; preds = %30
  %56 = load ptr, ptr %9, align 8
  %57 = load i32, ptr @hf_raknet_client_challenge, align 4
  %58 = load ptr, ptr %5, align 8
  %59 = load i32, ptr %10, align 4
  %60 = call ptr @proto_tree_add_item(ptr noundef %56, i32 noundef %57, ptr noundef %58, i32 noundef %59, i32 noundef 64, i32 noundef 0)
  %61 = load i32, ptr %10, align 4
  %62 = add i32 %61, 64
  store i32 %62, ptr %10, align 4
  br label %63

63:                                               ; preds = %55, %30
  call void @llvm.lifetime.end.p0(i64 1, ptr %12) #6
  br label %64

64:                                               ; preds = %63, %4
  %65 = load ptr, ptr %9, align 8
  %66 = load i32, ptr @hf_raknet_server_address, align 4
  %67 = load ptr, ptr %6, align 8
  %68 = load ptr, ptr %5, align 8
  call void @raknet_dissect_system_address(ptr noundef %65, i32 noundef %66, ptr noundef %67, ptr noundef %68, ptr noundef %10)
  %69 = load ptr, ptr %9, align 8
  %70 = load i32, ptr @hf_raknet_mtu_size, align 4
  %71 = load ptr, ptr %5, align 8
  %72 = load i32, ptr %10, align 4
  %73 = call ptr @proto_tree_add_item(ptr noundef %69, i32 noundef %70, ptr noundef %71, i32 noundef %72, i32 noundef 2, i32 noundef 0)
  %74 = load i32, ptr %10, align 4
  %75 = add i32 %74, 2
  store i32 %75, ptr %10, align 4
  %76 = load ptr, ptr %9, align 8
  %77 = load i32, ptr @hf_raknet_client_guid, align 4
  %78 = load ptr, ptr %5, align 8
  %79 = load i32, ptr %10, align 4
  %80 = call ptr @proto_tree_add_item(ptr noundef %76, i32 noundef %77, ptr noundef %78, i32 noundef %79, i32 noundef 8, i32 noundef 0)
  %81 = load i32, ptr %10, align 4
  %82 = add i32 %81, 8
  store i32 %82, ptr %10, align 4
  %83 = load i32, ptr %10, align 4
  call void @llvm.lifetime.end.p0(i64 8, ptr %11) #6
  call void @llvm.lifetime.end.p0(i64 4, ptr %10) #6
  call void @llvm.lifetime.end.p0(i64 8, ptr %9) #6
  ret i32 %83
}