; Function Attrs: null_pointer_is_valid sspstrong uwtable
define internal noundef i32 @raknet_dissect_open_connection_request_2(ptr noundef %0, ptr noundef %1, ptr noundef %2, ptr readnone captures(none) %3) #0 {
  %5 = alloca i32, align 4
  call void @llvm.lifetime.start.p0(i64 4, ptr nonnull %5) #5
  %6 = load i32, ptr @proto_raknet, align 4
  %7 = tail call ptr @proto_tree_add_item(ptr noundef %2, i32 noundef %6, ptr noundef %0, i32 noundef 0, i32 noundef -1, i32 noundef 0)
  %8 = load i32, ptr @ett_raknet, align 4
  %9 = tail call ptr @proto_item_add_subtree(ptr noundef %7, i32 noundef %8)
  %10 = tail call zeroext i8 @tvb_get_uint8(ptr noundef %0, i32 noundef 0)
  %11 = load i32, ptr @hf_raknet_offline_message_id, align 4
  %12 = tail call ptr @proto_tree_add_item(ptr noundef %9, i32 noundef %11, ptr noundef %0, i32 noundef 0, i32 noundef 1, i32 noundef 0)
  %13 = getelementptr inbounds nuw i8, ptr %1, i64 8
  %14 = load ptr, ptr %13, align 8
  %15 = zext i8 %10 to i32
  %16 = tail call ptr @val_to_str(i32 noundef %15, ptr noundef nonnull @raknet_offline_message_names, ptr noundef nonnull @.str.205)
  tail call void @col_add_str(ptr noundef %14, i32 noundef 25, ptr noundef %16)
  tail call void (ptr, ptr, ...) @proto_item_append_text(ptr noundef %7, ptr noundef nonnull @.str.206, i32 noundef %15)
  %17 = load i32, ptr @hf_raknet_offline_message_data_id, align 4
  %18 = tail call ptr @proto_tree_add_item(ptr noundef %9, i32 noundef %17, ptr noundef %0, i32 noundef 1, i32 noundef 16, i32 noundef 0)
  store i32 17, ptr %5, align 4
  %19 = tail call ptr @find_or_create_conversation(ptr noundef %1)
  %20 = load i32, ptr @proto_raknet, align 4
  %21 = tail call ptr @conversation_get_proto_data(ptr noundef %19, i32 noundef %20)
  %22 = icmp eq ptr %21, null
  br i1 %22, label %23, label %raknet_get_session_state.exit

23:                                               ; preds = %4
  %24 = tail call ptr @wmem_file_scope()
  %25 = tail call noalias dereferenceable_or_null(16) ptr @wmem_alloc(ptr noundef %24, i64 noundef 16) #4
  store i8 0, ptr %25, align 8
  %26 = getelementptr inbounds nuw i8, ptr %25, i64 8
  store ptr null, ptr %26, align 8
  %27 = load i32, ptr @proto_raknet, align 4
  tail call void @conversation_add_proto_data(ptr noundef %19, i32 noundef %27, ptr noundef %25)
  br label %raknet_get_session_state.exit

raknet_get_session_state.exit:                    ; preds = %4, %23
  %.0.i = phi ptr [ %25, %23 ], [ %21, %4 ]
  %28 = load i8, ptr %.0.i, align 8, !range !9, !noundef !10
  %29 = trunc nuw i8 %28 to i1
  br i1 %29, label %30, label %39

30:                                               ; preds = %raknet_get_session_state.exit
  %31 = load i32, ptr @hf_raknet_cookie, align 4
  %32 = tail call ptr @proto_tree_add_item(ptr noundef %9, i32 noundef %31, ptr noundef %0, i32 noundef 17, i32 noundef 4, i32 noundef 0)
  %33 = tail call zeroext i8 @tvb_get_uint8(ptr noundef %0, i32 noundef 21)
  %.not = icmp eq i8 %33, 0
  %34 = load i32, ptr @hf_raknet_client_wrote_challenge, align 4
  %35 = tail call ptr @proto_tree_add_item(ptr noundef %9, i32 noundef %34, ptr noundef %0, i32 noundef 21, i32 noundef 1, i32 noundef 0)
  store i32 22, ptr %5, align 4
  br i1 %.not, label %39, label %36

36:                                               ; preds = %30
  %37 = load i32, ptr @hf_raknet_client_challenge, align 4
  %38 = tail call ptr @proto_tree_add_item(ptr noundef %9, i32 noundef %37, ptr noundef %0, i32 noundef 22, i32 noundef 64, i32 noundef 0)
  store i32 86, ptr %5, align 4
  br label %39

39:                                               ; preds = %30, %36, %raknet_get_session_state.exit
  %40 = load i32, ptr @hf_raknet_server_address, align 4
  call fastcc void @raknet_dissect_system_address(ptr noundef %9, i32 noundef %40, ptr noundef %1, ptr noundef %0, ptr noundef nonnull %5)
  %41 = load i32, ptr @hf_raknet_mtu_size, align 4
  %42 = load i32, ptr %5, align 4
  %43 = tail call ptr @proto_tree_add_item(ptr noundef %9, i32 noundef %41, ptr noundef %0, i32 noundef %42, i32 noundef 2, i32 noundef 0)
  %44 = add i32 %42, 2
  %45 = load i32, ptr @hf_raknet_client_guid, align 4
  %46 = tail call ptr @proto_tree_add_item(ptr noundef %9, i32 noundef %45, ptr noundef %0, i32 noundef %44, i32 noundef 8, i32 noundef 0)
  %47 = add i32 %42, 10
  call void @llvm.lifetime.end.p0(i64 4, ptr nonnull %5) #5
  ret i32 %47
}